; Function Attrs: nounwind uwtable
define noalias ptr @l_Array_foldlMUnsafe_fold___at_Lake_Job_await___spec__1(ptr noundef readonly captures(none) %0, i64 noundef %1, i64 noundef %2, ptr noundef %3, ptr noundef %4, ptr noundef %5) local_unnamed_addr #0 {
  %.not41 = icmp eq i64 %1, %2
  br i1 %.not41, label %._crit_edge, label %.lr.ph

.lr.ph:                                           ; preds = %6
  %7 = getelementptr inbounds nuw i8, ptr %0, i64 24
  br label %8

8:                                                ; preds = %.lr.ph, %37
  %.02344 = phi i64 [ %1, %.lr.ph ], [ %39, %37 ]
  %.02643 = phi ptr [ %3, %.lr.ph ], [ inttoptr (i64 1 to ptr), %37 ]
  %.02842 = phi ptr [ %4, %.lr.ph ], [ %38, %37 ]
  %9 = ptrtoint ptr %.02643 to i64
  %10 = and i64 %9, 1
  %.not40 = icmp eq i64 %10, 0
  br i1 %.not40, label %11, label %lean_dec.exit

11:                                               ; preds = %8
  %12 = load i32, ptr %.02643, align 4, !tbaa !8
  %13 = icmp sgt i32 %12, 1
  br i1 %13, label %14, label %16, !prof !11

14:                                               ; preds = %11
  %15 = add nsw i32 %12, -1
  store i32 %15, ptr %.02643, align 4, !tbaa !8
  br label %lean_dec.exit

16:                                               ; preds = %11
  %.not.i = icmp eq i32 %12, 0
  br i1 %.not.i, label %lean_dec.exit, label %17

17:                                               ; preds = %16
  tail call void @lean_dec_ref_cold(ptr noundef nonnull %.02643) #4
  br label %lean_dec.exit

lean_dec.exit:                                    ; preds = %17, %16, %14, %8
  %18 = getelementptr inbounds nuw [0 x ptr], ptr %7, i64 0, i64 %.02344
  %19 = load ptr, ptr %18, align 8, !tbaa !4
  %20 = ptrtoint ptr %19 to i64
  %21 = and i64 %20, 1
  %.not.i30 = icmp eq i64 %21, 0
  br i1 %.not.i30, label %22, label %37

22:                                               ; preds = %lean_dec.exit
  %.val.i.i = load i32, ptr %19, align 4, !tbaa !8
  %23 = icmp sgt i32 %.val.i.i, 0
  br i1 %23, label %24, label %26, !prof !11

24:                                               ; preds = %22
  %25 = add nuw i32 %.val.i.i, 1
  store i32 %25, ptr %19, align 4, !tbaa !8
  br label %37

26:                                               ; preds = %22
  %.not.i.i = icmp eq i32 %.val.i.i, 0
  br i1 %.not.i.i, label %37, label %27

27:                                               ; preds = %26
  tail call void @lean_inc_ref_cold(ptr noundef nonnull %19) #4
  br label %37

._crit_edge:                                      ; preds = %37, %6
  %.028.lcssa = phi ptr [ %4, %6 ], [ %38, %37 ]
  %.026.lcssa = phi ptr [ %3, %6 ], [ inttoptr (i64 1 to ptr), %37 ]
  tail call void @lean_inc_heartbeat() #4
  %28 = tail call noalias ptr @mi_malloc_small(i64 noundef 24) #4
  %29 = icmp eq ptr %28, null
  br i1 %29, label %30, label %lean_alloc_ctor.exit

30:                                               ; preds = %._crit_edge
  tail call void @lean_internal_panic_out_of_memory() #5
  unreachable

lean_alloc_ctor.exit:                             ; preds = %._crit_edge
  %31 = getelementptr inbounds nuw i8, ptr %28, i64 4
  store i32 1, ptr %28, align 4, !tbaa !8
  store i32 131096, ptr %31, align 4
  %32 = getelementptr inbounds nuw i8, ptr %28, i64 8
  store ptr %.026.lcssa, ptr %32, align 8, !tbaa !4
  %33 = getelementptr inbounds nuw i8, ptr %28, i64 16
  store ptr %.028.lcssa, ptr %33, align 8, !tbaa !4
  tail call void @lean_inc_heartbeat() #4
  %34 = tail call noalias ptr @mi_malloc_small(i64 noundef 24) #4
  %35 = icmp eq ptr %34, null
  br i1 %35, label %36, label %40

36:                                               ; preds = %lean_alloc_ctor.exit
  tail call void @lean_internal_panic_out_of_memory() #5
  unreachable

37:                                               ; preds = %27, %26, %24, %lean_dec.exit
  %38 = tail call ptr @lean_array_push(ptr noundef %.02842, ptr noundef %19) #4
  %39 = add i64 %.02344, 1
  %.not = icmp eq i64 %39, %2
  br i1 %.not, label %._crit_edge, label %8

40:                                               ; preds = %lean_alloc_ctor.exit
  %41 = getelementptr inbounds nuw i8, ptr %34, i64 4
  store i32 1, ptr %34, align 4, !tbaa !8
  store i32 131096, ptr %41, align 4
  %42 = getelementptr inbounds nuw i8, ptr %34, i64 8
  store ptr %28, ptr %42, align 8, !tbaa !4
  %43 = getelementptr inbounds nuw i8, ptr %34, i64 16
  store ptr %5, ptr %43, align 8, !tbaa !4
  ret ptr %34
}